Certificate:
    Data:
        Version: 3 (0x2)
        Serial Number: 1 (0x1)
        Signature Algorithm: sha256WithRSAEncryption
        Issuer: C=CN, ST=SX, L=XA, O=Some Ltd. Corp, OU=Some Unit, CN=Someone/emailAddress=some@email.com
        Validity
            Not Before: Oct  8 01:39:43 2023 GMT
            Not After : Oct  7 01:39:43 2024 GMT
        Subject: C=CN, ST=SX, O=Some Ltd. Corp, OU=Some Other Unit, CN=Another/emailAddress=another@email.com
        Subject Public Key Info:
            Public Key Algorithm: rsaEncryption
                RSA Public-Key: (2048 bit)
                Modulus:
                    00:d7:fb:4e:97:38:fe:e0:b4:89:c1:7b:41:52:6f:
                    1b:a8:cf:2e:86:72:50:41:a0:e0:ff:1d:23:c5:99:
                    64:e5:da:d7:25:17:6a:78:b1:5b:ce:e4:45:f9:71:
                    25:6d:44:98:3b:06:82:95:53:90:c4:22:15:9f:73:
                    b4:3c:9a:70:84:c8:32:e1:8f:49:ce:7d:57:d1:78:
                    1a:e3:54:14:e8:0d:6a:96:d7:d7:0d:bf:ed:d9:66:
                    69:da:c3:9c:c5:00:b7:00:33:a1:2c:ed:e3:33:e3:
                    93:4b:1c:88:a4:e3:92:e8:4d:4f:f5:04:b2:84:38:
                    97:57:4b:94:b1:4b:16:01:88:2e:a2:6a:30:8f:dd:
                    a5:6b:29:87:32:d8:a3:13:23:dc:2d:11:74:7b:5f:
                    e5:6e:7e:03:47:a0:5f:18:96:63:4c:7f:21:37:9c:
                    f5:27:be:9f:d3:c8:e5:0f:58:72:58:c1:3b:6a:57:
                    2f:e7:90:75:ea:d5:5c:50:8f:a4:5f:06:a2:d6:17:
                    6a:8b:cb:0b:dc:5a:31:07:fc:5a:41:ac:4b:28:e3:
                    3e:7e:36:e9:33:b1:a3:d5:4d:0e:6e:2b:bb:42:64:
                    f4:4a:0a:42:5f:de:b6:a2:e4:ef:74:4e:8a:b5:7b:
                    aa:eb:cc:8e:07:b9:cf:e1:6a:77:e2:c9:39:66:59:
                    7a:fd
                Exponent: 65537 (0x10001)
        X509v3 extensions:
            X509v3 Basic Constraints: 
                CA:FALSE
            Netscape Comment: 
                OpenSSL Generated Certificate
            X509v3 Subject Key Identifier: 
                64:5D:93:06:EE:1C:CE:7B:98:54:D7:45:CF:2C:64:D2:A8:F4:E7:AB
            X509v3 Authority Key Identifier: 
                keyid:A4:D1:6C:C5:CD:5E:29:CE:D8:27:53:76:DB:B8:3B:F1:5D:68:E5:30

    Signature Algorithm: sha256WithRSAEncryption
         05:dd:c3:2c:c6:7a:a3:6d:f0:b2:0d:a5:da:19:69:5a:56:ff:
         a5:4e:22:80:80:10:55:70:26:32:d6:29:51:7b:4a:7b:5b:38:
         92:a3:f2:63:1d:eb:0a:2c:c5:7e:bc:2c:a4:0e:56:16:37:f2:
         a2:2f:44:8d:16:e7:fc:88:b8:68:7b:ae:92:d5:a3:90:24:3d:
         c2:04:28:7d:b7:31:ad:f0:5a:12:04:3b:14:40:32:bb:01:d7:
         12:15:df:27:88:87:a1:34:b5:b3:17:93:13:54:21:bd:b0:ae:
         56:e8:5d:c6:8a:d0:b7:a4:d9:51:4b:f2:dc:eb:53:f1:68:39:
         17:c7:0e:cb:5c:a0:8c:3c:e0:ae:4f:60:05:7f:db:70:eb:81:
         53:8a:2e:31:7f:6c:c1:53:b1:87:6f:15:9f:f6:dc:a0:45:f9:
         93:dc:ca:8a:c4:3e:c1:0b:89:eb:6a:ec:4a:d6:40:3b:8a:3e:
         7e:84:6a:db:6e:3c:b4:d0:89:21:5e:7d:b4:35:86:8a:6c:e1:
         00:53:8c:56:60:1a:25:24:6d:97:6c:96:03:1e:6b:d1:52:48:
         6f:03:83:63:aa:a2:c7:3d:a7:4e:d9:60:eb:09:67:b3:8f:6a:
         1c:d1:c5:c2:ed:f4:4f:68:95:58:a3:55:82:1d:22:1d:3c:80:
         01:5e:bb:50
-----BEGIN CERTIFICATE-----
MIID/jCCAuagAwIBAgIBATANBgkqhkiG9w0BAQsFADCBhTELMAkGA1UEBhMCQ04x
CzAJBgNVBAgMAlNYMQswCQYDVQQHDAJYQTEXMBUGA1UECgwOU29tZSBMdGQuIENv
cnAxEjAQBgNVBAsMCVNvbWUgVW5pdDEQMA4GA1UEAwwHU29tZW9uZTEdMBsGCSqG
SIb3DQEJARYOc29tZUBlbWFpbC5jb20wHhcNMjMxMDA4MDEzOTQzWhcNMjQxMDA3
MDEzOTQzWjCBgTELMAkGA1UEBhMCQ04xCzAJBgNVBAgMAlNYMRcwFQYDVQQKDA5T
b21lIEx0ZC4gQ29ycDEYMBYGA1UECwwPU29tZSBPdGhlciBVbml0MRAwDgYDVQQD
DAdBbm90aGVyMSAwHgYJKoZIhvcNAQkBFhFhbm90aGVyQGVtYWlsLmNvbTCCASIw
DQYJKoZIhvcNAQEBBQADggEPADCCAQoCggEBANf7Tpc4/uC0icF7QVJvG6jPLoZy
UEGg4P8dI8WZZOXa1yUXanixW87kRflxJW1EmDsGgpVTkMQiFZ9ztDyacITIMuGP
Sc59V9F4GuNUFOgNapbX1w2/7dlmadrDnMUAtwAzoSzt4zPjk0sciKTjkuhNT/UE
soQ4l1dLlLFLFgGILqJqMI/dpWsphzLYoxMj3C0RdHtf5W5+A0egXxiWY0x/ITec
9Se+n9PI5Q9YcljBO2pXL+eQderVXFCPpF8GotYXaovLC9xaMQf8WkGsSyjjPn42
6TOxo9VNDm4ru0Jk9EoKQl/etqLk73ROirV7quvMjge5z+Fqd+LJOWZZev0CAwEA
AaN7MHkwCQYDVR0TBAIwADAsBglghkgBhvhCAQ0EHxYdT3BlblNTTCBHZW5lcmF0
ZWQgQ2VydGlmaWNhdGUwHQYDVR0OBBYEFGRdkwbuHM57mFTXRc8sZNKo9OerMB8G
A1UdIwQYMBaAFKTRbMXNXinO2CdTdtu4O/FdaOUwMA0GCSqGSIb3DQEBCwUAA4IB
AQAF3cMsxnqjbfCyDaXaGWlaVv+lTiKAgBBVcCYy1ilRe0p7WziSo/JjHesKLMV+
vCykDlYWN/KiL0SNFuf8iLhoe66S1aOQJD3CBCh9tzGt8FoSBDsUQDK7AdcSFd8n
iIehNLWzF5MTVCG9sK5W6F3GitC3pNlRS/Lc61PxaDkXxw7LXKCMPOCuT2AFf9tw
64FTii4xf2zBU7GHbxWf9tygRfmT3MqKxD7BC4nrauxK1kA7ij5+hGrbbjy00Ikh
Xn20NYaKbOEAU4xWYBolJG2XbJYDHmvRUkhvA4NjqqLHPadO2WDrCWezj2oc0cXC
7fRPaJVYo1WCHSIdPIABXrtQ
-----END CERTIFICATE-----
